; Function Attrs: null_pointer_is_valid sspstrong uwtable
define noundef zeroext i1 @dfilter_macro_table_iter_next(ptr noundef %0, ptr noundef writeonly captures(address_is_null) %1, ptr noundef writeonly captures(address_is_null) %2) local_unnamed_addr #0 {
  %4 = alloca ptr, align 8
  %5 = alloca ptr, align 8
  call void @llvm.lifetime.start.p0(i64 8, ptr nonnull %4) #9
  call void @llvm.lifetime.start.p0(i64 8, ptr nonnull %5) #9
  %6 = call i32 @g_hash_table_iter_next(ptr noundef %0, ptr noundef nonnull %4, ptr noundef nonnull %5)
  %.not = icmp ne i32 %6, 0
  br i1 %.not, label %7, label %15

7:                                                ; preds = %3
  %.not8 = icmp eq ptr %1, null
  br i1 %.not8, label %10, label %8

8:                                                ; preds = %7
  %9 = load ptr, ptr %4, align 8
  store ptr %9, ptr %1, align 8
  br label %10

10:                                               ; preds = %8, %7
  %.not9 = icmp eq ptr %2, null
  br i1 %.not9, label %15, label %11

11:                                               ; preds = %10
  %12 = load ptr, ptr %5, align 8
  %13 = getelementptr inbounds nuw i8, ptr %12, i64 8
  %14 = load ptr, ptr %13, align 8
  store ptr %14, ptr %2, align 8
  br label %15

15:                                               ; preds = %10, %11, %3
  call void @llvm.lifetime.end.p0(i64 8, ptr nonnull %5) #9
  call void @llvm.lifetime.end.p0(i64 8, ptr nonnull %4) #9
  ret i1 %.not
}